target datalayout = "e-m:e-p270:32:32-p271:32:32-p272:64:64-i64:64-i128:128-f80:128-n8:16:32:64-S128"
target triple = "x86_64-pc-linux-gnu"

%struct.node_record = type { ptr, ptr, i16, i64, i64, ptr, ptr, ptr, i16, ptr, i16, i16, i32, i32, i64, ptr, i16, i16, ptr, ptr, ptr, ptr, ptr, i64, i64, ptr, ptr, ptr, ptr, i32, ptr, ptr, i64, i64, i32, ptr, i64, ptr, i32, i16, ptr, ptr, i32, ptr, i32, i8, ptr, i32, i16, i16, ptr, i16, i64, i16, i64, ptr, i64, i32, i16, i64, i16, ptr, i16, i64, ptr, i64, i16, i32, i16, ptr, ptr, ptr, i16, i32, i16, i16, i32, ptr, i16, i32 }
%struct.slurmdb_tres_rec_t = type { i64, i32, i64, i32, ptr, ptr }

@.str.74 = private unnamed_addr constant [5 x i8] c"gres\00", align 1

; Function Attrs: nounwind uwtable
define internal i32 @_add_node_gres_tres(ptr noundef %0, ptr noundef %1) #0 {
  %3 = alloca i32, align 4
  %4 = alloca ptr, align 8
  %5 = alloca ptr, align 8
  %6 = alloca i64, align 8
  %7 = alloca i32, align 4
  %8 = alloca ptr, align 8
  %9 = alloca ptr, align 8
  %10 = alloca i32, align 4
  store ptr %0, ptr %4, align 8
  store ptr %1, ptr %5, align 8
  call void @llvm.lifetime.start.p0(i64 8, ptr %6) #11
  call void @llvm.lifetime.start.p0(i64 4, ptr %7) #11
  call void @llvm.lifetime.start.p0(i64 8, ptr %8) #11
  %11 = load ptr, ptr %4, align 8
  store ptr %11, ptr %8, align 8
  call void @llvm.lifetime.start.p0(i64 8, ptr %9) #11
  %12 = load ptr, ptr %5, align 8
  store ptr %12, ptr %9, align 8
  %13 = load ptr, ptr %8, align 8
  %14 = getelementptr inbounds nuw %struct.slurmdb_tres_rec_t, ptr %13, i32 0, i32 5
  %15 = load ptr, ptr %14, align 8
  %16 = call i32 @xstrcmp(ptr noundef %15, ptr noundef @.str.74)
  %17 = icmp ne i32 %16, 0
  br i1 %17, label %18, label %19

18:                                               ; preds = %2
  store i32 0, ptr %3, align 4
  store i32 1, ptr %10, align 4
  br label %51

19:                                               ; preds = %2
  %20 = load ptr, ptr %9, align 8
  %21 = getelementptr inbounds nuw %struct.node_record, ptr %20, i32 0, i32 28
  %22 = load ptr, ptr %21, align 8
  %23 = load ptr, ptr %8, align 8
  %24 = getelementptr inbounds nuw %struct.slurmdb_tres_rec_t, ptr %23, i32 0, i32 4
  %25 = load ptr, ptr %24, align 8
  %26 = call i64 @gres_node_config_cnt(ptr noundef %22, ptr noundef %25)
  store i64 %26, ptr %6, align 8
  %27 = load ptr, ptr %8, align 8
  %28 = getelementptr inbounds nuw %struct.slurmdb_tres_rec_t, ptr %27, i32 0, i32 4
  %29 = load ptr, ptr %28, align 8
  %30 = call ptr @strchr(ptr noundef %29, i32 noundef 58) #15
  %31 = icmp ne ptr %30, null
  br i1 %31, label %32, label %38

32:                                               ; preds = %19
  %33 = load i64, ptr %6, align 8
  %34 = load ptr, ptr %8, align 8
  %35 = getelementptr inbounds nuw %struct.slurmdb_tres_rec_t, ptr %34, i32 0, i32 2
  %36 = load i64, ptr %35, align 8
  %37 = add i64 %36, %33
  store i64 %37, ptr %35, align 8
  br label %38

38:                                               ; preds = %32, %19
  %39 = load ptr, ptr %8, align 8
  %40 = call i32 @assoc_mgr_find_tres_pos(ptr noundef %39, i1 noundef zeroext true)
  store i32 %40, ptr %7, align 4
  %41 = icmp ne i32 %40, -1
  br i1 %41, label %42, label %50

42:                                               ; preds = %38
  %43 = load i64, ptr %6, align 8
  %44 = load ptr, ptr %9, align 8
  %45 = getelementptr inbounds nuw %struct.node_record, ptr %44, i32 0, i32 69
  %46 = load ptr, ptr %45, align 8
  %47 = load i32, ptr %7, align 4
  %48 = sext i32 %47 to i64
  %49 = getelementptr inbounds i64, ptr %46, i64 %48
  store i64 %43, ptr %49, align 8
  br label %50

50:                                               ; preds = %42, %38
  store i32 0, ptr %3, align 4
  store i32 1, ptr %10, align 4
  br label %51

51:                                               ; preds = %50, %18
  call void @llvm.lifetime.end.p0(i64 8, ptr %9) #11
  call void @llvm.lifetime.end.p0(i64 8, ptr %8) #11
  call void @llvm.lifetime.end.p0(i64 4, ptr %7) #11
  call void @llvm.lifetime.end.p0(i64 8, ptr %6) #11
  %52 = load i32, ptr %3, align 4
  ret i32 %52
}