; Function Attrs: nounwind uwtable
define internal noundef i32 @_add_node_gres_tres(ptr noundef %0, ptr noundef readonly captures(none) %1) #6 {
  %3 = getelementptr inbounds nuw i8, ptr %0, i64 40
  %4 = load ptr, ptr %3, align 8
  %5 = tail call i32 @xstrcmp(ptr noundef %4, ptr noundef nonnull @.str.74) #19
  %.not = icmp eq i32 %5, 0
  br i1 %.not, label %6, label %25

6:                                                ; preds = %2
  %7 = getelementptr inbounds nuw i8, ptr %1, i64 200
  %8 = load ptr, ptr %7, align 8
  %9 = getelementptr inbounds nuw i8, ptr %0, i64 32
  %10 = load ptr, ptr %9, align 8
  %11 = tail call i64 @gres_node_config_cnt(ptr noundef %8, ptr noundef %10) #19
  %12 = load ptr, ptr %9, align 8
  %13 = tail call ptr @strchr(ptr noundef nonnull dereferenceable(1) %12, i32 noundef 58) #23
  %.not12 = icmp eq ptr %13, null
  br i1 %.not12, label %18, label %14

14:                                               ; preds = %6
  %15 = getelementptr inbounds nuw i8, ptr %0, i64 16
  %16 = load i64, ptr %15, align 8
  %17 = add i64 %16, %11
  store i64 %17, ptr %15, align 8
  br label %18

18:                                               ; preds = %14, %6
  %19 = tail call i32 @assoc_mgr_find_tres_pos(ptr noundef nonnull %0, i1 noundef zeroext true) #19
  %.not13 = icmp eq i32 %19, -1
  br i1 %.not13, label %25, label %20

20:                                               ; preds = %18
  %21 = getelementptr inbounds nuw i8, ptr %1, i64 480
  %22 = load ptr, ptr %21, align 8
  %23 = sext i32 %19 to i64
  %24 = getelementptr inbounds i64, ptr %22, i64 %23
  store i64 %11, ptr %24, align 8
  br label %25

25:                                               ; preds = %18, %20, %2
  ret i32 0
}